target datalayout = "e-m:e-p270:32:32-p271:32:32-p272:64:64-i64:64-i128:128-f80:128-n8:16:32:64-S128"
target triple = "x86_64-pc-linux-gnu"

%struct.ident_t = type { i32, i32, i32, i32, ptr }
%"class.ncnn::Mat" = type { ptr, ptr, i64, i32, ptr, i32, i32, i32, i32, i32, i64 }

@1 = private unnamed_addr constant %struct.ident_t { i32 0, i32 514, i32 0, i32 22, ptr @0 }, align 8

; Function Attrs: alwaysinline mustprogress nounwind uwtable
define linkonce_odr hidden noundef nonnull align 4 dereferenceable(4) ptr @_ZN4ncnn3MatixEm(ptr noundef nonnull align 8 dereferenceable(72) %0, i64 noundef %1) #3 comdat align 2 {
  %3 = alloca ptr, align 8
  %4 = alloca i64, align 8
  store ptr %0, ptr %3, align 8, !tbaa !44
  store i64 %1, ptr %4, align 8, !tbaa !68
  %5 = load ptr, ptr %3, align 8
  %6 = getelementptr inbounds nuw %"class.ncnn::Mat", ptr %5, i32 0, i32 0
  %7 = load ptr, ptr %6, align 8, !tbaa !57
  %8 = load i64, ptr %4, align 8, !tbaa !68
  %9 = getelementptr inbounds nuw float, ptr %7, i64 %8
  ret ptr %9
}

; Function Attrs: alwaysinline norecurse nounwind uwtable
define internal void @_ZN4ncnnL3rnnERKNS_3MatERS0_iS2_S2_S2_S3_RKNS_6OptionE.omp_outlined.2(ptr noalias noundef %0, ptr noalias noundef %1, ptr noundef nonnull align 4 dereferenceable(4) %2, ptr noundef nonnull align 8 dereferenceable(72) %3, ptr noundef nonnull align 8 dereferenceable(72) %4, ptr noundef nonnull align 8 dereferenceable(8) %5) #9 {
  %7 = alloca ptr, align 8
  %8 = alloca ptr, align 8
  %9 = alloca ptr, align 8
  %10 = alloca ptr, align 8
  %11 = alloca ptr, align 8
  %12 = alloca ptr, align 8
  %13 = alloca ptr, align 8
  %14 = alloca i32, align 4
  %15 = alloca i32, align 4
  %16 = alloca i32, align 4
  %17 = alloca i32, align 4
  %18 = alloca i32, align 4
  %19 = alloca i32, align 4
  %20 = alloca i32, align 4
  %21 = alloca i32, align 4
  %22 = alloca i32, align 4
  %23 = alloca float, align 4
  store ptr %0, ptr %7, align 8, !tbaa !84
  store ptr %1, ptr %8, align 8, !tbaa !84
  store ptr %2, ptr %9, align 8, !tbaa !84
  store ptr %3, ptr %10, align 8, !tbaa !44
  store ptr %4, ptr %11, align 8, !tbaa !44
  store ptr %5, ptr %12, align 8, !tbaa !85
  %24 = load ptr, ptr %9, align 8, !tbaa !84
  %25 = load ptr, ptr %10, align 8, !tbaa !44
  %26 = load ptr, ptr %11, align 8, !tbaa !44
  %27 = load ptr, ptr %12, align 8, !tbaa !85
  store ptr %26, ptr %13, align 8
  call void @llvm.lifetime.start.p0(i64 4, ptr %14) #10
  call void @llvm.lifetime.start.p0(i64 4, ptr %15) #10
  %28 = load i32, ptr %24, align 4, !tbaa !39
  store i32 %28, ptr %15, align 4, !tbaa !39
  call void @llvm.lifetime.start.p0(i64 4, ptr %16) #10
  %29 = load i32, ptr %15, align 4, !tbaa !39
  %30 = sub nsw i32 %29, 0
  %31 = sdiv i32 %30, 1
  %32 = sub nsw i32 %31, 1
  store i32 %32, ptr %16, align 4, !tbaa !39
  call void @llvm.lifetime.start.p0(i64 4, ptr %17) #10
  store i32 0, ptr %17, align 4, !tbaa !39
  call void @llvm.lifetime.end.p0(i64 4, ptr %17) #10
  %33 = load i32, ptr %15, align 4, !tbaa !39
  %34 = icmp slt i32 0, %33
  br i1 %34, label %35, label %80

35:                                               ; preds = %6
  call void @llvm.lifetime.start.p0(i64 4, ptr %18) #10
  store i32 0, ptr %18, align 4, !tbaa !39
  call void @llvm.lifetime.start.p0(i64 4, ptr %19) #10
  %36 = load i32, ptr %16, align 4, !tbaa !39
  store i32 %36, ptr %19, align 4, !tbaa !39
  call void @llvm.lifetime.start.p0(i64 4, ptr %20) #10
  store i32 1, ptr %20, align 4, !tbaa !39
  call void @llvm.lifetime.start.p0(i64 4, ptr %21) #10
  store i32 0, ptr %21, align 4, !tbaa !39
  call void @llvm.lifetime.start.p0(i64 4, ptr %22) #10
  %37 = load ptr, ptr %7, align 8
  %38 = load i32, ptr %37, align 4, !tbaa !39
  call void @__kmpc_for_static_init_4(ptr @1, i32 %38, i32 34, ptr %21, ptr %18, ptr %19, ptr %20, i32 1, i32 1)
  %39 = load i32, ptr %19, align 4, !tbaa !39
  %40 = load i32, ptr %16, align 4, !tbaa !39
  %41 = icmp sgt i32 %39, %40
  br i1 %41, label %42, label %44

42:                                               ; preds = %35
  %43 = load i32, ptr %16, align 4, !tbaa !39
  br label %46

44:                                               ; preds = %35
  %45 = load i32, ptr %19, align 4, !tbaa !39
  br label %46

46:                                               ; preds = %44, %42
  %47 = phi i32 [ %43, %42 ], [ %45, %44 ]
  store i32 %47, ptr %19, align 4, !tbaa !39
  %48 = load i32, ptr %18, align 4, !tbaa !39
  store i32 %48, ptr %14, align 4, !tbaa !39
  br label %49

49:                                               ; preds = %73, %46
  %50 = load i32, ptr %14, align 4, !tbaa !39
  %51 = load i32, ptr %19, align 4, !tbaa !39
  %52 = icmp sle i32 %50, %51
  br i1 %52, label %54, label %53

53:                                               ; preds = %49
  br label %76

54:                                               ; preds = %49
  %55 = load i32, ptr %14, align 4, !tbaa !39
  %56 = mul nsw i32 %55, 1
  %57 = add nsw i32 0, %56
  store i32 %57, ptr %22, align 4, !tbaa !39
  call void @llvm.lifetime.start.p0(i64 4, ptr %23) #10
  %58 = load i32, ptr %22, align 4, !tbaa !39
  %59 = sext i32 %58 to i64
  %60 = call noundef nonnull align 4 dereferenceable(4) ptr @_ZN4ncnn3MatixEm(ptr noundef nonnull align 8 dereferenceable(72) %25, i64 noundef %59)
  %61 = load float, ptr %60, align 4, !tbaa !69
  store float %61, ptr %23, align 4, !tbaa !69
  %62 = load float, ptr %23, align 4, !tbaa !69
  %63 = load ptr, ptr %13, align 8, !tbaa !44
  %64 = load i32, ptr %22, align 4, !tbaa !39
  %65 = sext i32 %64 to i64
  %66 = call noundef nonnull align 4 dereferenceable(4) ptr @_ZN4ncnn3MatixEm(ptr noundef nonnull align 8 dereferenceable(72) %63, i64 noundef %65)
  store float %62, ptr %66, align 4, !tbaa !69
  %67 = load float, ptr %23, align 4, !tbaa !69
  %68 = load ptr, ptr %27, align 8, !tbaa !50
  %69 = load i32, ptr %22, align 4, !tbaa !39
  %70 = sext i32 %69 to i64
  %71 = getelementptr inbounds float, ptr %68, i64 %70
  store float %67, ptr %71, align 4, !tbaa !69
  call void @llvm.lifetime.end.p0(i64 4, ptr %23) #10
  br label %72

72:                                               ; preds = %54
  br label %73

73:                                               ; preds = %72
  %74 = load i32, ptr %14, align 4, !tbaa !39
  %75 = add nsw i32 %74, 1
  store i32 %75, ptr %14, align 4, !tbaa !39
  br label %49

76:                                               ; preds = %53
  br label %77

77:                                               ; preds = %76
  %78 = load ptr, ptr %7, align 8
  %79 = load i32, ptr %78, align 4, !tbaa !39
  call void @__kmpc_for_static_fini(ptr @1, i32 %79)
  call void @llvm.lifetime.end.p0(i64 4, ptr %22) #10
  call void @llvm.lifetime.end.p0(i64 4, ptr %21) #10
  call void @llvm.lifetime.end.p0(i64 4, ptr %20) #10
  call void @llvm.lifetime.end.p0(i64 4, ptr %19) #10
  call void @llvm.lifetime.end.p0(i64 4, ptr %18) #10
  br label %80

80:                                               ; preds = %77, %6
  call void @llvm.lifetime.end.p0(i64 4, ptr %16) #10
  call void @llvm.lifetime.end.p0(i64 4, ptr %15) #10
  call void @llvm.lifetime.end.p0(i64 4, ptr %14) #10
  ret void
}